target datalayout = "e-m:e-p270:32:32-p271:32:32-p272:64:64-i64:64-i128:128-f80:128-n8:16:32:64-S128"
target triple = "x86_64-pc-linux-gnu"

%"struct.vcpkg::Triplet" = type { ptr }
%"struct.vcpkg::LineInfo" = type { i32, ptr }

@.str = private unnamed_addr constant [123 x i8] c"generated/home/dtcxzyw/WorkSpace/Projects/compilers/llvm-opt-benchmark/bench/vcpkg/vcpkg-tool/src/vcpkg/commands.build.cpp\00", align 1

; Function Attrs: mustprogress uwtable
define dso_local void @_ZN5vcpkg25command_build_and_exit_exERKNS_17VcpkgCmdArgumentsERKNS_15FullPackageSpecENS_7TripletERKNS_21PathsPortFileProviderERKNS_18IBuildLogsRecorderERKNS_10VcpkgPathsE(ptr noundef nonnull align 8 dereferenceable(1784) %0, ptr noundef nonnull align 8 dereferenceable(64) %1, ptr %2, ptr noundef nonnull align 8 dereferenceable(32) %3, ptr noundef nonnull align 8 dereferenceable(8) %4, ptr noundef nonnull align 8 dereferenceable(400) %5) #0 {
  %7 = alloca %"struct.vcpkg::Triplet", align 8
  %8 = alloca ptr, align 8
  %9 = alloca ptr, align 8
  %10 = alloca ptr, align 8
  %11 = alloca ptr, align 8
  %12 = alloca ptr, align 8
  %13 = alloca %"struct.vcpkg::LineInfo", align 8
  %14 = alloca %"struct.vcpkg::Triplet", align 8
  %15 = getelementptr inbounds %"struct.vcpkg::Triplet", ptr %7, i32 0, i32 0
  store ptr %2, ptr %15, align 8
  store ptr %0, ptr %8, align 8
  store ptr %1, ptr %9, align 8
  store ptr %3, ptr %10, align 8
  store ptr %4, ptr %11, align 8
  store ptr %5, ptr %12, align 8
  %16 = getelementptr inbounds %"struct.vcpkg::LineInfo", ptr %13, i32 0, i32 0
  store i32 65, ptr %16, align 8
  %17 = getelementptr inbounds %"struct.vcpkg::LineInfo", ptr %13, i32 0, i32 1
  store ptr @.str, ptr %17, align 8
  %18 = load ptr, ptr %8, align 8
  %19 = load ptr, ptr %9, align 8
  call void @llvm.memcpy.p0.p0.i64(ptr align 8 %14, ptr align 8 %7, i64 8, i1 false)
  %20 = load ptr, ptr %10, align 8
  %21 = load ptr, ptr %11, align 8
  %22 = load ptr, ptr %12, align 8
  %23 = getelementptr inbounds %"struct.vcpkg::Triplet", ptr %14, i32 0, i32 0
  %24 = load ptr, ptr %23, align 8
  %25 = call noundef i32 @_ZN5vcpkg16command_build_exERKNS_17VcpkgCmdArgumentsERKNS_15FullPackageSpecENS_7TripletERKNS_21PathsPortFileProviderERKNS_18IBuildLogsRecorderERKNS_10VcpkgPathsE(ptr noundef nonnull align 8 dereferenceable(1784) %18, ptr noundef nonnull align 8 dereferenceable(64) %19, ptr %24, ptr noundef nonnull align 8 dereferenceable(32) %20, ptr noundef nonnull align 8 dereferenceable(8) %21, ptr noundef nonnull align 8 dereferenceable(400) %22)
  call void @_ZN5vcpkg6Checks14exit_with_codeERKNS_8LineInfoEi(ptr noundef nonnull align 8 dereferenceable(16) %13, i32 noundef %25) #20
  unreachable
}