; Function Attrs: mustprogress noreturn uwtable
define dso_local void @_ZN5vcpkg25command_build_and_exit_exERKNS_17VcpkgCmdArgumentsERKNS_15FullPackageSpecENS_7TripletERKNS_21PathsPortFileProviderERKNS_18IBuildLogsRecorderERKNS_10VcpkgPathsE(ptr noundef nonnull align 8 dereferenceable(1784) %0, ptr noundef nonnull align 8 dereferenceable(64) %1, ptr %2, ptr noundef nonnull align 8 dereferenceable(32) %3, ptr noundef nonnull align 8 dereferenceable(8) %4, ptr noundef nonnull align 8 dereferenceable(400) %5) local_unnamed_addr #0 {
  %7 = alloca %"struct.vcpkg::LineInfo", align 8
  store i32 65, ptr %7, align 8
  %8 = getelementptr inbounds i8, ptr %7, i64 8
  store ptr @.str, ptr %8, align 8
  %9 = tail call noundef i32 @_ZN5vcpkg16command_build_exERKNS_17VcpkgCmdArgumentsERKNS_15FullPackageSpecENS_7TripletERKNS_21PathsPortFileProviderERKNS_18IBuildLogsRecorderERKNS_10VcpkgPathsE(ptr noundef nonnull align 8 dereferenceable(1784) %0, ptr noundef nonnull align 8 dereferenceable(64) %1, ptr %2, ptr noundef nonnull align 8 dereferenceable(32) %3, ptr noundef nonnull align 8 dereferenceable(8) %4, ptr noundef nonnull align 8 dereferenceable(400) %5), !range !5
  call void @_ZN5vcpkg6Checks14exit_with_codeERKNS_8LineInfoEi(ptr noundef nonnull align 8 dereferenceable(16) %7, i32 noundef %9) #24
  unreachable
}